target datalayout = "e-m:e-p270:32:32-p271:32:32-p272:64:64-i64:64-i128:128-f80:128-n8:16:32:64-S128"
target triple = "x86_64-pc-linux-gnu"

@H5TOOLS_MALLOCSIZE = global i64 268435456, align 8
@H5TOOLS_BUFSIZE = global i64 33554432, align 8
@enable_error_stack = external global i32, align 4
@H5tools_ERR_STACK_g = external global i64, align 8
@H5tools_ERR_CLS_g = external global i64, align 8
@.str.5 = private unnamed_addr constant [113 x i8] c"generated/home/dtcxzyw/WorkSpace/Projects/compilers/llvm-opt-benchmark/bench/hdf5/hdf5/tools/lib/h5tools_utils.c\00", align 1
@H5E_tools_g = external global i64, align 8
@stderr = external global ptr, align 8
@.str.7 = private unnamed_addr constant [2 x i8] c"\0A\00", align 1
@H5E_tools_min_id_g = external global i64, align 8
@.str.20 = private unnamed_addr constant [16 x i8] c"H5TOOLS_BUFSIZE\00", align 1
@__func__.h5tools_getenv_update_hyperslab_bufsize = private unnamed_addr constant [40 x i8] c"h5tools_getenv_update_hyperslab_bufsize\00", align 1
@.str.21 = private unnamed_addr constant [29 x i8] c"hyperslab buffer size failed\00", align 1

; Function Attrs: nounwind uwtable
define i32 @h5tools_getenv_update_hyperslab_bufsize() #0 {
  %1 = alloca ptr, align 8
  %2 = alloca i64, align 8
  %3 = alloca i32, align 4
  store ptr null, ptr %1, align 8
  store i32 1, ptr %3, align 4
  %4 = call ptr @getenv(ptr noundef @.str.20) #12
  store ptr %4, ptr %1, align 8
  %5 = icmp ne ptr null, %4
  br i1 %5, label %6, label %57

6:                                                ; preds = %0
  %7 = call ptr @__errno_location() #13
  store i32 0, ptr %7, align 4
  %8 = load ptr, ptr %1, align 8
  %9 = call i64 @strtol(ptr noundef %8, ptr noundef null, i32 noundef 10) #12
  store i64 %9, ptr %2, align 8
  %10 = call ptr @__errno_location() #13
  %11 = load i32, ptr %10, align 4
  %12 = icmp ne i32 %11, 0
  br i1 %12, label %16, label %13

13:                                               ; preds = %6
  %14 = load i64, ptr %2, align 8
  %15 = icmp sle i64 %14, 0
  br i1 %15, label %16, label %44

16:                                               ; preds = %13, %6
  br label %17

17:                                               ; preds = %16
  br label %18

18:                                               ; preds = %17
  %19 = load i32, ptr @enable_error_stack, align 4
  %20 = icmp sgt i32 %19, 0
  br i1 %20, label %21, label %39

21:                                               ; preds = %18
  %22 = load i64, ptr @H5tools_ERR_STACK_g, align 8
  %23 = icmp sge i64 %22, 0
  br i1 %23, label %24, label %33

24:                                               ; preds = %21
  %25 = load i64, ptr @H5tools_ERR_CLS_g, align 8
  %26 = icmp sge i64 %25, 0
  br i1 %26, label %27, label %33

27:                                               ; preds = %24
  %28 = load i64, ptr @H5tools_ERR_STACK_g, align 8
  %29 = load i64, ptr @H5tools_ERR_CLS_g, align 8
  %30 = load i64, ptr @H5E_tools_g, align 8
  %31 = load i64, ptr @H5E_tools_min_id_g, align 8
  %32 = call i32 (i64, ptr, ptr, i32, i64, i64, i64, ptr, ...) @H5Epush2(i64 noundef %28, ptr noundef @.str.5, ptr noundef @__func__.h5tools_getenv_update_hyperslab_bufsize, i32 noundef 1001, i64 noundef %29, i64 noundef %30, i64 noundef %31, ptr noundef @.str.21)
  br label %38

33:                                               ; preds = %24, %21
  %34 = load ptr, ptr @stderr, align 8
  %35 = call i32 (ptr, ptr, ...) @fprintf(ptr noundef %34, ptr noundef @.str.21) #12
  %36 = load ptr, ptr @stderr, align 8
  %37 = call i32 (ptr, ptr, ...) @fprintf(ptr noundef %36, ptr noundef @.str.7) #12
  br label %38

38:                                               ; preds = %33, %27
  br label %39

39:                                               ; preds = %38, %18
  br label %40

40:                                               ; preds = %39
  br label %41

41:                                               ; preds = %40
  store i32 -1, ptr %3, align 4
  br label %58

42:                                               ; No predecessors!
  br label %43

43:                                               ; preds = %42
  br label %44

44:                                               ; preds = %43, %13
  %45 = load i64, ptr %2, align 8
  %46 = mul i64 %45, 1024
  %47 = mul i64 %46, 1024
  store i64 %47, ptr @H5TOOLS_BUFSIZE, align 8
  %48 = load i64, ptr @H5TOOLS_BUFSIZE, align 8
  %49 = load i64, ptr @H5TOOLS_MALLOCSIZE, align 8
  %50 = icmp ugt i64 %48, %49
  br i1 %50, label %51, label %53

51:                                               ; preds = %44
  %52 = load i64, ptr @H5TOOLS_BUFSIZE, align 8
  br label %55

53:                                               ; preds = %44
  %54 = load i64, ptr @H5TOOLS_MALLOCSIZE, align 8
  br label %55

55:                                               ; preds = %53, %51
  %56 = phi i64 [ %52, %51 ], [ %54, %53 ]
  store i64 %56, ptr @H5TOOLS_MALLOCSIZE, align 8
  br label %57

57:                                               ; preds = %55, %0
  br label %58

58:                                               ; preds = %57, %41
  %59 = load i32, ptr %3, align 4
  ret i32 %59
}