; Function Attrs: nounwind uwtable
define range(i32 -1, 2) i32 @h5tools_getenv_update_hyperslab_bufsize() local_unnamed_addr #4 {
  %1 = tail call ptr @getenv(ptr noundef nonnull @.str.20) #23
  %.not = icmp eq ptr %1, null
  br i1 %.not, label %28, label %2

2:                                                ; preds = %0
  %3 = tail call ptr @__errno_location() #24
  store i32 0, ptr %3, align 4
  %4 = tail call i64 @strtol(ptr noundef nonnull captures(none) %1, ptr noundef null, i32 noundef 10) #23
  %5 = load i32, ptr %3, align 4
  %6 = icmp ne i32 %5, 0
  %7 = icmp slt i64 %4, 1
  %or.cond = select i1 %6, i1 true, i1 %7
  br i1 %or.cond, label %8, label %24

8:                                                ; preds = %2
  %9 = load i32, ptr @enable_error_stack, align 4
  %10 = icmp sgt i32 %9, 0
  br i1 %10, label %11, label %28

11:                                               ; preds = %8
  %12 = load i64, ptr @H5tools_ERR_STACK_g, align 8
  %13 = icmp sgt i64 %12, -1
  %14 = load i64, ptr @H5tools_ERR_CLS_g, align 8
  %15 = icmp sgt i64 %14, -1
  %or.cond3 = select i1 %13, i1 %15, i1 false
  br i1 %or.cond3, label %16, label %20

16:                                               ; preds = %11
  %17 = load i64, ptr @H5E_tools_g, align 8
  %18 = load i64, ptr @H5E_tools_min_id_g, align 8
  %19 = tail call i32 (i64, ptr, ptr, i32, i64, i64, i64, ptr, ...) @H5Epush2(i64 noundef %12, ptr noundef nonnull @.str.5, ptr noundef nonnull @__func__.h5tools_getenv_update_hyperslab_bufsize, i32 noundef 1001, i64 noundef %14, i64 noundef %17, i64 noundef %18, ptr noundef nonnull @.str.21) #23
  br label %28

20:                                               ; preds = %11
  %21 = load ptr, ptr @stderr, align 8
  %22 = tail call i64 @fwrite(ptr nonnull @.str.21, i64 28, i64 1, ptr %21) #26
  %23 = load ptr, ptr @stderr, align 8
  %fputc = tail call i32 @fputc(i32 10, ptr %23)
  br label %28

24:                                               ; preds = %2
  %25 = shl i64 %4, 20
  store i64 %25, ptr @H5TOOLS_BUFSIZE, align 8
  %26 = load i64, ptr @H5TOOLS_MALLOCSIZE, align 8
  %27 = tail call i64 @llvm.umax.i64(i64 %25, i64 %26)
  store i64 %27, ptr @H5TOOLS_MALLOCSIZE, align 8
  br label %28

28:                                               ; preds = %8, %20, %16, %0, %24
  %.0 = phi i32 [ 1, %24 ], [ 1, %0 ], [ -1, %16 ], [ -1, %20 ], [ -1, %8 ]
  ret i32 %.0
}